target datalayout = "e-m:e-p270:32:32-p271:32:32-p272:64:64-i64:64-i128:128-f80:128-n8:16:32:64-S128"
target triple = "x86_64-pc-linux-gnu"

%"class.std::__cxx11::basic_string" = type { %"struct.std::__cxx11::basic_string<char>::_Alloc_hider", i64, %union.anon }
%"struct.std::__cxx11::basic_string<char>::_Alloc_hider" = type { ptr }
%union.anon = type { i64, [8 x i8] }
%struct.common_params_sampling = type { i32, i32, i32, i32, i32, float, float, float, float, float, float, float, float, i32, float, float, float, float, float, i32, i32, i32, float, float, float, i8, i8, i8, %"class.std::vector", %"class.std::vector.3", %"class.std::__cxx11::basic_string", i8, %"class.std::vector.8", %"class.std::vector.13", %"class.std::set", %"class.std::vector.21" }
%"class.std::vector" = type { %"struct.std::_Vector_base" }
%"struct.std::_Vector_base" = type { %"struct.std::_Vector_base<std::__cxx11::basic_string<char>, std::allocator<std::__cxx11::basic_string<char>>>::_Vector_impl" }
%"struct.std::_Vector_base<std::__cxx11::basic_string<char>, std::allocator<std::__cxx11::basic_string<char>>>::_Vector_impl" = type { %"struct.std::_Vector_base<std::__cxx11::basic_string<char>, std::allocator<std::__cxx11::basic_string<char>>>::_Vector_impl_data" }
%"struct.std::_Vector_base<std::__cxx11::basic_string<char>, std::allocator<std::__cxx11::basic_string<char>>>::_Vector_impl_data" = type { ptr, ptr, ptr }
%"class.std::vector.3" = type { %"struct.std::_Vector_base.4" }
%"struct.std::_Vector_base.4" = type { %"struct.std::_Vector_base<common_sampler_type, std::allocator<common_sampler_type>>::_Vector_impl" }
%"struct.std::_Vector_base<common_sampler_type, std::allocator<common_sampler_type>>::_Vector_impl" = type { %"struct.std::_Vector_base<common_sampler_type, std::allocator<common_sampler_type>>::_Vector_impl_data" }
%"struct.std::_Vector_base<common_sampler_type, std::allocator<common_sampler_type>>::_Vector_impl_data" = type { ptr, ptr, ptr }
%"class.std::vector.8" = type { %"struct.std::_Vector_base.9" }
%"struct.std::_Vector_base.9" = type { %"struct.std::_Vector_base<common_grammar_trigger, std::allocator<common_grammar_trigger>>::_Vector_impl" }
%"struct.std::_Vector_base<common_grammar_trigger, std::allocator<common_grammar_trigger>>::_Vector_impl" = type { %"struct.std::_Vector_base<common_grammar_trigger, std::allocator<common_grammar_trigger>>::_Vector_impl_data" }
%"struct.std::_Vector_base<common_grammar_trigger, std::allocator<common_grammar_trigger>>::_Vector_impl_data" = type { ptr, ptr, ptr }
%"class.std::vector.13" = type { %"struct.std::_Vector_base.14" }
%"struct.std::_Vector_base.14" = type { %"struct.std::_Vector_base<int, std::allocator<int>>::_Vector_impl" }
%"struct.std::_Vector_base<int, std::allocator<int>>::_Vector_impl" = type { %"struct.std::_Vector_base<int, std::allocator<int>>::_Vector_impl_data" }
%"struct.std::_Vector_base<int, std::allocator<int>>::_Vector_impl_data" = type { ptr, ptr, ptr }
%"class.std::set" = type { %"class.std::_Rb_tree" }
%"class.std::_Rb_tree" = type { %"struct.std::_Rb_tree<int, int, std::_Identity<int>, std::less<int>>::_Rb_tree_impl" }
%"struct.std::_Rb_tree<int, int, std::_Identity<int>, std::less<int>>::_Rb_tree_impl" = type { [8 x i8], %"struct.std::_Rb_tree_header" }
%"struct.std::_Rb_tree_header" = type { %"struct.std::_Rb_tree_node_base", i64 }
%"struct.std::_Rb_tree_node_base" = type { i32, ptr, ptr, ptr }
%"class.std::vector.21" = type { %"struct.std::_Vector_base.22" }
%"struct.std::_Vector_base.22" = type { %"struct.std::_Vector_base<llama_logit_bias, std::allocator<llama_logit_bias>>::_Vector_impl" }
%"struct.std::_Vector_base<llama_logit_bias, std::allocator<llama_logit_bias>>::_Vector_impl" = type { %"struct.std::_Vector_base<llama_logit_bias, std::allocator<llama_logit_bias>>::_Vector_impl_data" }
%"struct.std::_Vector_base<llama_logit_bias, std::allocator<llama_logit_bias>>::_Vector_impl_data" = type { ptr, ptr, ptr }
%struct.common_sampler = type { %struct.common_params_sampling, ptr, ptr, %struct.ring_buffer, %"class.std::vector.31", %struct.llama_token_data_array }
%struct.ring_buffer = type { i64, i64, i64, i64, %"class.std::vector.13" }
%"class.std::vector.31" = type { %"struct.std::_Vector_base.32" }
%"struct.std::_Vector_base.32" = type { %"struct.std::_Vector_base<llama_token_data, std::allocator<llama_token_data>>::_Vector_impl" }
%"struct.std::_Vector_base<llama_token_data, std::allocator<llama_token_data>>::_Vector_impl" = type { %"struct.std::_Vector_base<llama_token_data, std::allocator<llama_token_data>>::_Vector_impl_data" }
%"struct.std::_Vector_base<llama_token_data, std::allocator<llama_token_data>>::_Vector_impl_data" = type { ptr, ptr, ptr }
%struct.llama_token_data_array = type { ptr, i64, i64, i8 }

; Function Attrs: mustprogress uwtable
define void @_Z17common_perf_printPK13llama_contextPK14common_sampler(ptr noundef %0, ptr noundef %1) #0 {
  %3 = alloca ptr, align 8
  %4 = alloca ptr, align 8
  store ptr %0, ptr %3, align 8, !tbaa !162
  store ptr %1, ptr %4, align 8, !tbaa !102
  %5 = load ptr, ptr %4, align 8, !tbaa !102
  %6 = icmp ne ptr %5, null
  br i1 %6, label %7, label %11

7:                                                ; preds = %2
  %8 = load ptr, ptr %4, align 8, !tbaa !102
  %9 = getelementptr inbounds nuw %struct.common_sampler, ptr %8, i32 0, i32 2
  %10 = load ptr, ptr %9, align 8, !tbaa !100
  call void @llama_perf_sampler_print(ptr noundef %10)
  br label %11

11:                                               ; preds = %7, %2
  %12 = load ptr, ptr %3, align 8, !tbaa !162
  %13 = icmp ne ptr %12, null
  br i1 %13, label %14, label %16

14:                                               ; preds = %11
  %15 = load ptr, ptr %3, align 8, !tbaa !162
  call void @llama_perf_context_print(ptr noundef %15)
  br label %16

16:                                               ; preds = %14, %11
  ret void
}