; Function Attrs: mustprogress uwtable
define void @_Z17common_perf_printPK13llama_contextPK14common_sampler(ptr noundef %0, ptr noundef readonly %1) local_unnamed_addr #0 {
  %.not = icmp eq ptr %1, null
  br i1 %.not, label %6, label %3

3:                                                ; preds = %2
  %4 = getelementptr inbounds nuw i8, ptr %1, i64 320
  %5 = load ptr, ptr %4, align 8, !tbaa !90
  tail call void @llama_perf_sampler_print(ptr noundef %5)
  br label %6

6:                                                ; preds = %3, %2
  %.not5 = icmp eq ptr %0, null
  br i1 %.not5, label %8, label %7

7:                                                ; preds = %6
  tail call void @llama_perf_context_print(ptr noundef nonnull %0)
  br label %8

8:                                                ; preds = %7, %6
  ret void
}